target datalayout = "e-m:e-p270:32:32-p271:32:32-p272:64:64-i64:64-i128:128-f80:128-n8:16:32:64-S128"
target triple = "x86_64-pc-linux-gnu"

%struct.Abc_Frame_t_ = type { ptr, ptr, ptr, ptr, ptr, ptr, ptr, ptr, ptr, ptr, i32, i32, i32, i32, i32, ptr, float, float, i32, i32, ptr, ptr, ptr, double, double, ptr, ptr, ptr, ptr, ptr, ptr, ptr, ptr, ptr, ptr, ptr, ptr, float, ptr, i32, ptr, ptr, ptr, ptr, ptr, i32, i32, i32, i32, i32, i32, ptr, ptr, ptr, ptr, ptr, ptr, i32, i32, ptr, ptr, ptr, ptr, ptr, ptr, ptr, ptr, ptr, ptr, ptr, ptr, ptr, ptr, ptr, ptr, ptr, ptr, ptr, ptr, ptr, ptr, ptr, ptr, ptr, ptr, ptr, ptr, ptr, ptr }

@.str.27 = private unnamed_addr constant [4 x i8] c"yes\00", align 1
@.str.28 = private unnamed_addr constant [3 x i8] c"no\00", align 1
@.str.30 = private unnamed_addr constant [62 x i8] c"\09-v     : toggle printing verbose information [default = %s]\0A\00", align 1
@.str.31 = private unnamed_addr constant [35 x i8] c"\09-h     : print the command usage\0A\00", align 1
@.str.83 = private unnamed_addr constant [3 x i8] c"vh\00", align 1
@.str.99 = private unnamed_addr constant [48 x i8] c"Cba_CommandTest(): There is no current design.\0A\00", align 1
@.str.100 = private unnamed_addr constant [20 x i8] c"usage: :test [-vh]\0A\00", align 1
@.str.101 = private unnamed_addr constant [48 x i8] c"\09         experiments with word-level networks\0A\00", align 1

; Function Attrs: inlinehint nounwind uwtable
define internal ptr @Cba_AbcGetMan(ptr noundef %0) #2 {
  %2 = alloca ptr, align 8
  store ptr %0, ptr %2, align 8, !tbaa !3
  %3 = load ptr, ptr %2, align 8, !tbaa !3
  %4 = getelementptr inbounds nuw %struct.Abc_Frame_t_, ptr %3, i32 0, i32 75
  %5 = load ptr, ptr %4, align 8, !tbaa !57
  ret ptr %5
}

; Function Attrs: nounwind uwtable
define internal i32 @Cba_CommandTest(ptr noundef %0, i32 noundef %1, ptr noundef %2) #0 {
  %4 = alloca i32, align 4
  %5 = alloca ptr, align 8
  %6 = alloca i32, align 4
  %7 = alloca ptr, align 8
  %8 = alloca ptr, align 8
  %9 = alloca i32, align 4
  %10 = alloca i32, align 4
  %11 = alloca i32, align 4
  store ptr %0, ptr %5, align 8, !tbaa !3
  store i32 %1, ptr %6, align 4, !tbaa !8
  store ptr %2, ptr %7, align 8, !tbaa !10
  call void @llvm.lifetime.start.p0(i64 8, ptr %8) #14
  %12 = load ptr, ptr %5, align 8, !tbaa !3
  %13 = call ptr @Cba_AbcGetMan(ptr noundef %12)
  store ptr %13, ptr %8, align 8, !tbaa !12
  call void @llvm.lifetime.start.p0(i64 4, ptr %9) #14
  call void @llvm.lifetime.start.p0(i64 4, ptr %10) #14
  store i32 0, ptr %10, align 4, !tbaa !8
  call void (...) @Extra_UtilGetoptReset()
  br label %14

14:                                               ; preds = %26, %3
  %15 = load i32, ptr %6, align 4, !tbaa !8
  %16 = load ptr, ptr %7, align 8, !tbaa !10
  %17 = call i32 @Extra_UtilGetopt(i32 noundef %15, ptr noundef %16, ptr noundef @.str.83)
  store i32 %17, ptr %9, align 4, !tbaa !8
  %18 = icmp ne i32 %17, -1
  br i1 %18, label %19, label %27

19:                                               ; preds = %14
  %20 = load i32, ptr %9, align 4, !tbaa !8
  switch i32 %20, label %25 [
    i32 118, label %21
    i32 104, label %24
  ]

21:                                               ; preds = %19
  %22 = load i32, ptr %10, align 4, !tbaa !8
  %23 = xor i32 %22, 1
  store i32 %23, ptr %10, align 4, !tbaa !8
  br label %26

24:                                               ; preds = %19
  br label %32

25:                                               ; preds = %19
  br label %32

26:                                               ; preds = %21
  br label %14, !llvm.loop !56

27:                                               ; preds = %14
  %28 = load ptr, ptr %8, align 8, !tbaa !12
  %29 = icmp eq ptr %28, null
  br i1 %29, label %30, label %31

30:                                               ; preds = %27
  call void (i32, ptr, ...) @Abc_Print(i32 noundef 1, ptr noundef @.str.99)
  store i32 0, ptr %4, align 4
  store i32 1, ptr %11, align 4
  br label %36

31:                                               ; preds = %27
  store i32 0, ptr %4, align 4
  store i32 1, ptr %11, align 4
  br label %36

32:                                               ; preds = %25, %24
  call void (i32, ptr, ...) @Abc_Print(i32 noundef -2, ptr noundef @.str.100)
  call void (i32, ptr, ...) @Abc_Print(i32 noundef -2, ptr noundef @.str.101)
  %33 = load i32, ptr %10, align 4, !tbaa !8
  %34 = icmp ne i32 %33, 0
  %35 = select i1 %34, ptr @.str.27, ptr @.str.28
  call void (i32, ptr, ...) @Abc_Print(i32 noundef -2, ptr noundef @.str.30, ptr noundef %35)
  call void (i32, ptr, ...) @Abc_Print(i32 noundef -2, ptr noundef @.str.31)
  store i32 1, ptr %4, align 4
  store i32 1, ptr %11, align 4
  br label %36

36:                                               ; preds = %32, %31, %30
  call void @llvm.lifetime.end.p0(i64 4, ptr %10) #14
  call void @llvm.lifetime.end.p0(i64 4, ptr %9) #14
  call void @llvm.lifetime.end.p0(i64 8, ptr %8) #14
  %37 = load i32, ptr %4, align 4
  ret i32 %37
}